; ModuleID = '55/519.c'
source_filename = "55/519.c"
target datalayout = "e-m:e-p270:32:32-p271:32:32-p272:64:64-i64:64-f80:128-n8:16:32:64-S128"
target triple = "x86_64-pc-linux-gnu"

@.str = private unnamed_addr constant [7 x i8] c"%d%s%d\00", align 1
@.str.1 = private unnamed_addr constant [3 x i8] c"%c\00", align 1
@.str.2 = private unnamed_addr constant [2 x i8] c"\0A\00", align 1

; Function Attrs: noinline nounwind uwtable
define dso_local void @main() #0 {
  %1 = alloca i32, align 4
  %2 = alloca i32, align 4
  %3 = alloca i32, align 4
  %4 = alloca i32, align 4
  %5 = alloca i32, align 4
  %6 = alloca i32, align 4
  %7 = alloca i32, align 4
  %8 = alloca i32, align 4
  %9 = alloca [40 x i8], align 16
  %10 = alloca [40 x i8], align 16
  store i32 0, i32* %1, align 4
  %11 = getelementptr inbounds [40 x i8], [40 x i8]* %9, i64 0, i64 0
  %12 = call i32 (i8*, ...) @__isoc99_scanf(i8* getelementptr inbounds ([7 x i8], [7 x i8]* @.str, i64 0, i64 0), i32* %2, i8* %11, i32* %3)
  %13 = getelementptr inbounds [40 x i8], [40 x i8]* %9, i64 0, i64 0
  %14 = call i64 @strlen(i8* %13) #3
  %15 = trunc i64 %14 to i32
  store i32 %15, i32* %4, align 4
  store i32 0, i32* %5, align 4
  br label %16

16:                                               ; preds = %100, %0
  %17 = load i32, i32* %5, align 4
  %18 = load i32, i32* %4, align 4
  %19 = icmp slt i32 %17, %18
  br i1 %19, label %20, label %103

20:                                               ; preds = %16
  %21 = load i32, i32* %5, align 4
  %22 = sext i32 %21 to i64
  %23 = getelementptr inbounds [40 x i8], [40 x i8]* %9, i64 0, i64 %22
  %24 = load i8, i8* %23, align 1
  %25 = sext i8 %24 to i32
  %26 = icmp sge i32 %25, 97
  br i1 %26, label %27, label %46

27:                                               ; preds = %20
  %28 = load i32, i32* %5, align 4
  %29 = sext i32 %28 to i64
  %30 = getelementptr inbounds [40 x i8], [40 x i8]* %9, i64 0, i64 %29
  %31 = load i8, i8* %30, align 1
  %32 = sext i8 %31 to i32
  %33 = icmp sle i32 %32, 122
  br i1 %33, label %34, label %46

34:                                               ; preds = %27
  %35 = load i32, i32* %2, align 4
  %36 = load i32, i32* %1, align 4
  %37 = mul nsw i32 %35, %36
  %38 = add nsw i32 %37, 10
  %39 = load i32, i32* %5, align 4
  %40 = sext i32 %39 to i64
  %41 = getelementptr inbounds [40 x i8], [40 x i8]* %9, i64 0, i64 %40
  %42 = load i8, i8* %41, align 1
  %43 = sext i8 %42 to i32
  %44 = add nsw i32 %38, %43
  %45 = sub nsw i32 %44, 97
  store i32 %45, i32* %1, align 4
  br label %99

46:                                               ; preds = %27, %20
  %47 = load i32, i32* %5, align 4
  %48 = sext i32 %47 to i64
  %49 = getelementptr inbounds [40 x i8], [40 x i8]* %9, i64 0, i64 %48
  %50 = load i8, i8* %49, align 1
  %51 = sext i8 %50 to i32
  %52 = icmp sge i32 %51, 65
  br i1 %52, label %53, label %72

53:                                               ; preds = %46
  %54 = load i32, i32* %5, align 4
  %55 = sext i32 %54 to i64
  %56 = getelementptr inbounds [40 x i8], [40 x i8]* %9, i64 0, i64 %55
  %57 = load i8, i8* %56, align 1
  %58 = sext i8 %57 to i32
  %59 = icmp sle i32 %58, 90
  br i1 %59, label %60, label %72

60:                                               ; preds = %53
  %61 = load i32, i32* %2, align 4
  %62 = load i32, i32* %1, align 4
  %63 = mul nsw i32 %61, %62
  %64 = add nsw i32 %63, 10
  %65 = load i32, i32* %5, align 4
  %66 = sext i32 %65 to i64
  %67 = getelementptr inbounds [40 x i8], [40 x i8]* %9, i64 0, i64 %66
  %68 = load i8, i8* %67, align 1
  %69 = sext i8 %68 to i32
  %70 = add nsw i32 %64, %69
  %71 = sub nsw i32 %70, 65
  store i32 %71, i32* %1, align 4
  br label %98

72:                                               ; preds = %53, %46
  %73 = load i32, i32* %5, align 4
  %74 = sext i32 %73 to i64
  %75 = getelementptr inbounds [40 x i8], [40 x i8]* %9, i64 0, i64 %74
  %76 = load i8, i8* %75, align 1
  %77 = sext i8 %76 to i32
  %78 = icmp sge i32 %77, 48
  br i1 %78, label %79, label %97

79:                                               ; preds = %72
  %80 = load i32, i32* %5, align 4
  %81 = sext i32 %80 to i64
  %82 = getelementptr inbounds [40 x i8], [40 x i8]* %9, i64 0, i64 %81
  %83 = load i8, i8* %82, align 1
  %84 = sext i8 %83 to i32
  %85 = icmp sle i32 %84, 57
  br i1 %85, label %86, label %97

86:                                               ; preds = %79
  %87 = load i32, i32* %2, align 4
  %88 = load i32, i32* %1, align 4
  %89 = mul nsw i32 %87, %88
  %90 = load i32, i32* %5, align 4
  %91 = sext i32 %90 to i64
  %92 = getelementptr inbounds [40 x i8], [40 x i8]* %9, i64 0, i64 %91
  %93 = load i8, i8* %92, align 1
  %94 = sext i8 %93 to i32
  %95 = add nsw i32 %89, %94
  %96 = sub nsw i32 %95, 48
  store i32 %96, i32* %1, align 4
  br label %97

97:                                               ; preds = %86, %79, %72
  br label %98

98:                                               ; preds = %97, %60
  br label %99

99:                                               ; preds = %98, %34
  br label %100

100:                                              ; preds = %99
  %101 = load i32, i32* %5, align 4
  %102 = add nsw i32 %101, 1
  store i32 %102, i32* %5, align 4
  br label %16

103:                                              ; preds = %16
  %104 = load i32, i32* %1, align 4
  %105 = load i32, i32* %3, align 4
  %106 = icmp slt i32 %104, %105
  br i1 %106, label %107, label %120

107:                                              ; preds = %103
  %108 = load i32, i32* %1, align 4
  %109 = icmp sle i32 %108, 9
  br i1 %109, label %110, label %114

110:                                              ; preds = %107
  %111 = load i32, i32* %1, align 4
  %112 = add nsw i32 %111, 48
  %113 = call i32 (i8*, ...) @printf(i8* getelementptr inbounds ([3 x i8], [3 x i8]* @.str.1, i64 0, i64 0), i32 %112)
  br label %119

114:                                              ; preds = %107
  %115 = load i32, i32* %1, align 4
  %116 = sub nsw i32 %115, 10
  %117 = add nsw i32 %116, 65
  %118 = call i32 (i8*, ...) @printf(i8* getelementptr inbounds ([3 x i8], [3 x i8]* @.str.1, i64 0, i64 0), i32 %117)
  br label %119

119:                                              ; preds = %114, %110
  br label %194

120:                                              ; preds = %103
  store i32 0, i32* %7, align 4
  br label %121

121:                                              ; preds = %151, %120
  %122 = load i32, i32* %1, align 4
  %123 = load i32, i32* %3, align 4
  %124 = srem i32 %122, %123
  store i32 %124, i32* %6, align 4
  %125 = load i32, i32* %6, align 4
  %126 = icmp sle i32 %125, 9
  br i1 %126, label %127, label %134

127:                                              ; preds = %121
  %128 = load i32, i32* %6, align 4
  %129 = add nsw i32 %128, 48
  %130 = trunc i32 %129 to i8
  %131 = load i32, i32* %7, align 4
  %132 = sext i32 %131 to i64
  %133 = getelementptr inbounds [40 x i8], [40 x i8]* %10, i64 0, i64 %132
  store i8 %130, i8* %133, align 1
  br label %142

134:                                              ; preds = %121
  %135 = load i32, i32* %6, align 4
  %136 = sub nsw i32 %135, 10
  %137 = add nsw i32 %136, 65
  %138 = trunc i32 %137 to i8
  %139 = load i32, i32* %7, align 4
  %140 = sext i32 %139 to i64
  %141 = getelementptr inbounds [40 x i8], [40 x i8]* %10, i64 0, i64 %140
  store i8 %138, i8* %141, align 1
  br label %142

142:                                              ; preds = %134, %127
  %143 = load i32, i32* %1, align 4
  %144 = load i32, i32* %3, align 4
  %145 = sdiv i32 %143, %144
  store i32 %145, i32* %1, align 4
  %146 = load i32, i32* %1, align 4
  %147 = load i32, i32* %3, align 4
  %148 = icmp slt i32 %146, %147
  br i1 %148, label %149, label %150

149:                                              ; preds = %142
  br label %154

150:                                              ; preds = %142
  br label %151

151:                                              ; preds = %150
  %152 = load i32, i32* %7, align 4
  %153 = add nsw i32 %152, 1
  store i32 %153, i32* %7, align 4
  br label %121

154:                                              ; preds = %149
  %155 = load i32, i32* %1, align 4
  %156 = icmp sle i32 %155, 9
  br i1 %156, label %157, label %165

157:                                              ; preds = %154
  %158 = load i32, i32* %1, align 4
  %159 = add nsw i32 %158, 48
  %160 = trunc i32 %159 to i8
  %161 = load i32, i32* %7, align 4
  %162 = add nsw i32 %161, 1
  %163 = sext i32 %162 to i64
  %164 = getelementptr inbounds [40 x i8], [40 x i8]* %10, i64 0, i64 %163
  store i8 %160, i8* %164, align 1
  br label %174

165:                                              ; preds = %154
  %166 = load i32, i32* %1, align 4
  %167 = sub nsw i32 %166, 10
  %168 = add nsw i32 %167, 65
  %169 = trunc i32 %168 to i8
  %170 = load i32, i32* %7, align 4
  %171 = add nsw i32 %170, 1
  %172 = sext i32 %171 to i64
  %173 = getelementptr inbounds [40 x i8], [40 x i8]* %10, i64 0, i64 %172
  store i8 %169, i8* %173, align 1
  br label %174

174:                                              ; preds = %165, %157
  store i32 0, i32* %8, align 4
  br label %175

175:                                              ; preds = %190, %174
  %176 = load i32, i32* %8, align 4
  %177 = load i32, i32* %7, align 4
  %178 = add nsw i32 %177, 1
  %179 = icmp sle i32 %176, %178
  br i1 %179, label %180, label %193

180:                                              ; preds = %175
  %181 = load i32, i32* %7, align 4
  %182 = add nsw i32 %181, 1
  %183 = load i32, i32* %8, align 4
  %184 = sub nsw i32 %182, %183
  %185 = sext i32 %184 to i64
  %186 = getelementptr inbounds [40 x i8], [40 x i8]* %10, i64 0, i64 %185
  %187 = load i8, i8* %186, align 1
  %188 = sext i8 %187 to i32
  %189 = call i32 (i8*, ...) @printf(i8* getelementptr inbounds ([3 x i8], [3 x i8]* @.str.1, i64 0, i64 0), i32 %188)
  br label %190

190:                                              ; preds = %180
  %191 = load i32, i32* %8, align 4
  %192 = add nsw i32 %191, 1
  store i32 %192, i32* %8, align 4
  br label %175

193:                                              ; preds = %175
  br label %194

194:                                              ; preds = %193, %119
  %195 = call i32 (i8*, ...) @printf(i8* getelementptr inbounds ([2 x i8], [2 x i8]* @.str.2, i64 0, i64 0))
  ret void
}

declare dso_local i32 @__isoc99_scanf(i8*, ...) #1

; Function Attrs: nounwind readonly
declare dso_local i64 @strlen(i8*) #2

declare dso_local i32 @printf(i8*, ...) #1


!llvm.module.flags = !{!0}
!llvm.ident = !{!1}

!0 = !{i32 1, !"wchar_size", i32 4}
!1 = !{!"clang version 10.0.0-4ubuntu1 "}
